(lp1
S'5.1,3.5,1.4,0.2,Iris-setosa\n'
p2
aS'4.9,3.0,1.4,0.2,Iris-setosa\n'
p3
aS'4.7,3.2,1.3,0.2,Iris-setosa\n'
p4
aS'4.6,3.1,1.5,0.2,Iris-setosa\n'
p5
aS'5.0,3.6,1.4,0.2,Iris-setosa\n'
p6
aS'5.4,3.9,1.7,0.4,Iris-setosa\n'
p7
aS'4.6,3.4,1.4,0.3,Iris-setosa\n'
p8
aS'5.0,3.4,1.5,0.2,Iris-setosa\n'
p9
aS'4.4,2.9,1.4,0.2,Iris-setosa\n'
p10
aS'4.9,3.1,1.5,0.1,Iris-setosa\n'
p11
aS'5.4,3.7,1.5,0.2,Iris-setosa\n'
p12
aS'4.8,3.4,1.6,0.2,Iris-setosa\n'
p13
aS'4.8,3.0,1.4,0.1,Iris-setosa\n'
p14
aS'4.3,3.0,1.1,0.1,Iris-setosa\n'
p15
aS'5.8,4.0,1.2,0.2,Iris-setosa\n'
p16
aS'5.7,4.4,1.5,0.4,Iris-setosa\n'
p17
aS'5.4,3.9,1.3,0.4,Iris-setosa\n'
p18
aS'5.1,3.5,1.4,0.3,Iris-setosa\n'
p19
aS'5.7,3.8,1.7,0.3,Iris-setosa\n'
p20
aS'5.1,3.8,1.5,0.3,Iris-setosa\n'
p21
aS'5.4,3.4,1.7,0.2,Iris-setosa\n'
p22
aS'5.1,3.7,1.5,0.4,Iris-setosa\n'
p23
aS'4.6,3.6,1.0,0.2,Iris-setosa\n'
p24
aS'5.1,3.3,1.7,0.5,Iris-setosa\n'
p25
aS'4.8,3.4,1.9,0.2,Iris-setosa\n'
p26
aS'5.0,3.0,1.6,0.2,Iris-setosa\n'
p27
aS'5.0,3.4,1.6,0.4,Iris-setosa\n'
p28
aS'5.2,3.5,1.5,0.2,Iris-setosa\n'
p29
aS'5.2,3.4,1.4,0.2,Iris-setosa\n'
p30
aS'4.7,3.2,1.6,0.2,Iris-setosa\n'
p31
aS'4.8,3.1,1.6,0.2,Iris-setosa\n'
p32
aS'5.4,3.4,1.5,0.4,Iris-setosa\n'
p33
aS'5.2,4.1,1.5,0.1,Iris-setosa\n'
p34
aS'5.5,4.2,1.4,0.2,Iris-setosa\n'
p35
aS'4.9,3.1,1.5,0.1,Iris-setosa\n'
p36
aS'5.0,3.2,1.2,0.2,Iris-setosa\n'
p37
aS'5.5,3.5,1.3,0.2,Iris-setosa\n'
p38
aS'4.9,3.1,1.5,0.1,Iris-setosa\n'
p39
aS'4.4,3.0,1.3,0.2,Iris-setosa\n'
p40
aS'5.1,3.4,1.5,0.2,Iris-setosa\n'
p41
aS'5.0,3.5,1.3,0.3,Iris-setosa\n'
p42
aS'4.5,2.3,1.3,0.3,Iris-setosa\n'
p43
aS'4.4,3.2,1.3,0.2,Iris-setosa\n'
p44
aS'5.0,3.5,1.6,0.6,Iris-setosa\n'
p45
aS'5.1,3.8,1.9,0.4,Iris-setosa\n'
p46
aS'4.8,3.0,1.4,0.3,Iris-setosa\n'
p47
aS'5.1,3.8,1.6,0.2,Iris-setosa\n'
p48
aS'4.6,3.2,1.4,0.2,Iris-setosa\n'
p49
aS'5.3,3.7,1.5,0.2,Iris-setosa\n'
p50
aS'5.0,3.3,1.4,0.2,Iris-setosa\n'
p51
aS'7.0,3.2,4.7,1.4,Iris-versicolor\n'
p52
aS'6.4,3.2,4.5,1.5,Iris-versicolor\n'
p53
aS'6.9,3.1,4.9,1.5,Iris-versicolor\n'
p54
aS'5.5,2.3,4.0,1.3,Iris-versicolor\n'
p55
aS'6.5,2.8,4.6,1.5,Iris-versicolor\n'
p56
aS'5.7,2.8,4.5,1.3,Iris-versicolor\n'
p57
aS'6.3,3.3,4.7,1.6,Iris-versicolor\n'
p58
aS'4.9,2.4,3.3,1.0,Iris-versicolor\n'
p59
aS'6.6,2.9,4.6,1.3,Iris-versicolor\n'
p60
aS'5.2,2.7,3.9,1.4,Iris-versicolor\n'
p61
aS'5.0,2.0,3.5,1.0,Iris-versicolor\n'
p62
aS'5.9,3.0,4.2,1.5,Iris-versicolor\n'
p63
aS'6.0,2.2,4.0,1.0,Iris-versicolor\n'
p64
aS'6.1,2.9,4.7,1.4,Iris-versicolor\n'
p65
aS'5.6,2.9,3.6,1.3,Iris-versicolor\n'
p66
aS'6.7,3.1,4.4,1.4,Iris-versicolor\n'
p67
aS'5.6,3.0,4.5,1.5,Iris-versicolor\n'
p68
aS'5.8,2.7,4.1,1.0,Iris-versicolor\n'
p69
aS'6.2,2.2,4.5,1.5,Iris-versicolor\n'
p70
aS'5.6,2.5,3.9,1.1,Iris-versicolor\n'
p71
aS'5.9,3.2,4.8,1.8,Iris-versicolor\n'
p72
aS'6.1,2.8,4.0,1.3,Iris-versicolor\n'
p73
aS'6.3,2.5,4.9,1.5,Iris-versicolor\n'
p74
aS'6.1,2.8,4.7,1.2,Iris-versicolor\n'
p75
aS'6.4,2.9,4.3,1.3,Iris-versicolor\n'
p76
aS'6.6,3.0,4.4,1.4,Iris-versicolor\n'
p77
aS'6.8,2.8,4.8,1.4,Iris-versicolor\n'
p78
aS'6.7,3.0,5.0,1.7,Iris-versicolor\n'
p79
aS'6.0,2.9,4.5,1.5,Iris-versicolor\n'
p80
aS'5.7,2.6,3.5,1.0,Iris-versicolor\n'
p81
aS'5.5,2.4,3.8,1.1,Iris-versicolor\n'
p82
aS'5.5,2.4,3.7,1.0,Iris-versicolor\n'
p83
aS'5.8,2.7,3.9,1.2,Iris-versicolor\n'
p84
aS'6.0,2.7,5.1,1.6,Iris-versicolor\n'
p85
aS'5.4,3.0,4.5,1.5,Iris-versicolor\n'
p86
aS'6.0,3.4,4.5,1.6,Iris-versicolor\n'
p87
aS'6.7,3.1,4.7,1.5,Iris-versicolor\n'
p88
aS'6.3,2.3,4.4,1.3,Iris-versicolor\n'
p89
aS'5.6,3.0,4.1,1.3,Iris-versicolor\n'
p90
aS'5.5,2.5,4.0,1.3,Iris-versicolor\n'
p91
aS'5.5,2.6,4.4,1.2,Iris-versicolor\n'
p92
aS'6.1,3.0,4.6,1.4,Iris-versicolor\n'
p93
aS'5.8,2.6,4.0,1.2,Iris-versicolor\n'
p94
aS'5.0,2.3,3.3,1.0,Iris-versicolor\n'
p95
aS'5.6,2.7,4.2,1.3,Iris-versicolor\n'
p96
aS'5.7,3.0,4.2,1.2,Iris-versicolor\n'
p97
aS'5.7,2.9,4.2,1.3,Iris-versicolor\n'
p98
aS'6.2,2.9,4.3,1.3,Iris-versicolor\n'
p99
aS'5.1,2.5,3.0,1.1,Iris-versicolor\n'
p100
aS'5.7,2.8,4.1,1.3,Iris-versicolor\n'
p101
aS'6.3,3.3,6.0,2.5,Iris-virginica\n'
p102
aS'5.8,2.7,5.1,1.9,Iris-virginica\n'
p103
aS'7.1,3.0,5.9,2.1,Iris-virginica\n'
p104
aS'6.3,2.9,5.6,1.8,Iris-virginica\n'
p105
aS'6.5,3.0,5.8,2.2,Iris-virginica\n'
p106
aS'7.6,3.0,6.6,2.1,Iris-virginica\n'
p107
aS'4.9,2.5,4.5,1.7,Iris-virginica\n'
p108
aS'7.3,2.9,6.3,1.8,Iris-virginica\n'
p109
aS'6.7,2.5,5.8,1.8,Iris-virginica\n'
p110
aS'7.2,3.6,6.1,2.5,Iris-virginica\n'
p111
aS'6.5,3.2,5.1,2.0,Iris-virginica\n'
p112
aS'6.4,2.7,5.3,1.9,Iris-virginica\n'
p113
aS'6.8,3.0,5.5,2.1,Iris-virginica\n'
p114
aS'5.7,2.5,5.0,2.0,Iris-virginica\n'
p115
aS'5.8,2.8,5.1,2.4,Iris-virginica\n'
p116
aS'6.4,3.2,5.3,2.3,Iris-virginica\n'
p117
aS'6.5,3.0,5.5,1.8,Iris-virginica\n'
p118
aS'7.7,3.8,6.7,2.2,Iris-virginica\n'
p119
aS'7.7,2.6,6.9,2.3,Iris-virginica\n'
p120
aS'6.0,2.2,5.0,1.5,Iris-virginica\n'
p121
aS'6.9,3.2,5.7,2.3,Iris-virginica\n'
p122
aS'5.6,2.8,4.9,2.0,Iris-virginica\n'
p123
aS'7.7,2.8,6.7,2.0,Iris-virginica\n'
p124
aS'6.3,2.7,4.9,1.8,Iris-virginica\n'
p125
aS'6.7,3.3,5.7,2.1,Iris-virginica\n'
p126
aS'7.2,3.2,6.0,1.8,Iris-virginica\n'
p127
aS'6.2,2.8,4.8,1.8,Iris-virginica\n'
p128
aS'6.1,3.0,4.9,1.8,Iris-virginica\n'
p129
aS'6.4,2.8,5.6,2.1,Iris-virginica\n'
p130
aS'7.2,3.0,5.8,1.6,Iris-virginica\n'
p131
aS'7.4,2.8,6.1,1.9,Iris-virginica\n'
p132
aS'7.9,3.8,6.4,2.0,Iris-virginica\n'
p133
aS'6.4,2.8,5.6,2.2,Iris-virginica\n'
p134
aS'6.3,2.8,5.1,1.5,Iris-virginica\n'
p135
aS'6.1,2.6,5.6,1.4,Iris-virginica\n'
p136
aS'7.7,3.0,6.1,2.3,Iris-virginica\n'
p137
aS'6.3,3.4,5.6,2.4,Iris-virginica\n'
p138
aS'6.4,3.1,5.5,1.8,Iris-virginica\n'
p139
aS'6.0,3.0,4.8,1.8,Iris-virginica\n'
p140
aS'6.9,3.1,5.4,2.1,Iris-virginica\n'
p141
aS'6.7,3.1,5.6,2.4,Iris-virginica\n'
p142
aS'6.9,3.1,5.1,2.3,Iris-virginica\n'
p143
aS'5.8,2.7,5.1,1.9,Iris-virginica\n'
p144
aS'6.8,3.2,5.9,2.3,Iris-virginica\n'
p145
aS'6.7,3.3,5.7,2.5,Iris-virginica\n'
p146
aS'6.7,3.0,5.2,2.3,Iris-virginica\n'
p147
aS'6.3,2.5,5.0,1.9,Iris-virginica\n'
p148
aS'6.5,3.0,5.2,2.0,Iris-virginica\n'
p149
aS'6.2,3.4,5.4,2.3,Iris-virginica\n'
p150
aS'5.9,3.0,5.1,1.8,Iris-virginica\n'
p151
aS'\n'
a.